; ModuleID = '20/1241.c'
source_filename = "20/1241.c"
target datalayout = "e-m:e-p270:32:32-p271:32:32-p272:64:64-i64:64-f80:128-n8:16:32:64-S128"
target triple = "x86_64-pc-linux-gnu"

@.str = private unnamed_addr constant [6 x i8] c"%s%3s\00", align 1

; Function Attrs: noinline nounwind uwtable
define dso_local void @main() #0 {
  %1 = alloca [14 x i8], align 1
  %2 = alloca [4 x i8], align 1
  %3 = alloca i8, align 1
  %4 = alloca i32, align 4
  %5 = alloca i32, align 4
  %6 = alloca i32, align 4
  %7 = alloca i32, align 4
  %8 = bitcast [14 x i8]* %1 to i8*
  call void @llvm.memset.p0i8.i64(i8* align 1 %8, i8 0, i64 14, i1 false)
  %9 = bitcast [4 x i8]* %2 to i8*
  call void @llvm.memset.p0i8.i64(i8* align 1 %9, i8 0, i64 4, i1 false)
  br label %10

10:                                               ; preds = %87, %0
  %11 = getelementptr inbounds [14 x i8], [14 x i8]* %1, i64 0, i64 0
  %12 = getelementptr inbounds [4 x i8], [4 x i8]* %2, i64 0, i64 0
  %13 = call i32 (i8*, ...) @__isoc99_scanf(i8* getelementptr inbounds ([6 x i8], [6 x i8]* @.str, i64 0, i64 0), i8* %11, i8* %12)
  %14 = icmp ne i32 %13, -1
  br i1 %14, label %15, label %90

15:                                               ; preds = %10
  store i32 0, i32* %4, align 4
  store i32 0, i32* %5, align 4
  %16 = getelementptr inbounds [14 x i8], [14 x i8]* %1, i64 0, i64 0
  %17 = load i8, i8* %16, align 1
  store i8 %17, i8* %3, align 1
  br label %18

18:                                               ; preds = %39, %15
  %19 = load i32, i32* %4, align 4
  %20 = sext i32 %19 to i64
  %21 = getelementptr inbounds [14 x i8], [14 x i8]* %1, i64 0, i64 %20
  %22 = load i8, i8* %21, align 1
  %23 = icmp ne i8 %22, 0
  br i1 %23, label %24, label %42

24:                                               ; preds = %18
  %25 = load i32, i32* %4, align 4
  %26 = sext i32 %25 to i64
  %27 = getelementptr inbounds [14 x i8], [14 x i8]* %1, i64 0, i64 %26
  %28 = load i8, i8* %27, align 1
  %29 = sext i8 %28 to i32
  %30 = load i8, i8* %3, align 1
  %31 = sext i8 %30 to i32
  %32 = icmp sgt i32 %29, %31
  br i1 %32, label %33, label %39

33:                                               ; preds = %24
  %34 = load i32, i32* %4, align 4
  %35 = sext i32 %34 to i64
  %36 = getelementptr inbounds [14 x i8], [14 x i8]* %1, i64 0, i64 %35
  %37 = load i8, i8* %36, align 1
  store i8 %37, i8* %3, align 1
  %38 = load i32, i32* %4, align 4
  store i32 %38, i32* %5, align 4
  br label %39

39:                                               ; preds = %33, %24
  %40 = load i32, i32* %4, align 4
  %41 = add nsw i32 %40, 1
  store i32 %41, i32* %4, align 4
  br label %18

42:                                               ; preds = %18
  %43 = getelementptr inbounds [14 x i8], [14 x i8]* %1, i64 0, i64 0
  %44 = call i64 @strlen(i8* %43) #4
  %45 = trunc i64 %44 to i32
  store i32 %45, i32* %6, align 4
  %46 = load i32, i32* %6, align 4
  store i32 %46, i32* %4, align 4
  br label %47

47:                                               ; preds = %62, %42
  %48 = load i32, i32* %4, align 4
  %49 = load i32, i32* %5, align 4
  %50 = icmp sgt i32 %48, %49
  br i1 %50, label %51, label %65

51:                                               ; preds = %47
  %52 = getelementptr inbounds [14 x i8], [14 x i8]* %1, i64 0, i64 0
  %53 = load i32, i32* %4, align 4
  %54 = sext i32 %53 to i64
  %55 = getelementptr inbounds i8, i8* %52, i64 %54
  %56 = load i8, i8* %55, align 1
  %57 = getelementptr inbounds [14 x i8], [14 x i8]* %1, i64 0, i64 0
  %58 = load i32, i32* %4, align 4
  %59 = sext i32 %58 to i64
  %60 = getelementptr inbounds i8, i8* %57, i64 %59
  %61 = getelementptr inbounds i8, i8* %60, i64 3
  store i8 %56, i8* %61, align 1
  br label %62

62:                                               ; preds = %51
  %63 = load i32, i32* %4, align 4
  %64 = add nsw i32 %63, -1
  store i32 %64, i32* %4, align 4
  br label %47

65:                                               ; preds = %47
  %66 = load i32, i32* %5, align 4
  %67 = add nsw i32 %66, 3
  store i32 %67, i32* %4, align 4
  store i32 2, i32* %7, align 4
  br label %68

68:                                               ; preds = %82, %65
  %69 = load i32, i32* %4, align 4
  %70 = load i32, i32* %5, align 4
  %71 = icmp sgt i32 %69, %70
  br i1 %71, label %72, label %87

72:                                               ; preds = %68
  %73 = getelementptr inbounds [4 x i8], [4 x i8]* %2, i64 0, i64 0
  %74 = load i32, i32* %7, align 4
  %75 = sext i32 %74 to i64
  %76 = getelementptr inbounds i8, i8* %73, i64 %75
  %77 = load i8, i8* %76, align 1
  %78 = getelementptr inbounds [14 x i8], [14 x i8]* %1, i64 0, i64 0
  %79 = load i32, i32* %4, align 4
  %80 = sext i32 %79 to i64
  %81 = getelementptr inbounds i8, i8* %78, i64 %80
  store i8 %77, i8* %81, align 1
  br label %82

82:                                               ; preds = %72
  %83 = load i32, i32* %4, align 4
  %84 = add nsw i32 %83, -1
  store i32 %84, i32* %4, align 4
  %85 = load i32, i32* %7, align 4
  %86 = add nsw i32 %85, -1
  store i32 %86, i32* %7, align 4
  br label %68

87:                                               ; preds = %68
  %88 = getelementptr inbounds [14 x i8], [14 x i8]* %1, i64 0, i64 0
  %89 = call i32 @puts(i8* %88)
  br label %10

90:                                               ; preds = %10
  ret void
}

; Function Attrs: argmemonly nounwind willreturn
declare void @llvm.memset.p0i8.i64(i8* nocapture writeonly, i8, i64, i1 immarg) #1

declare dso_local i32 @__isoc99_scanf(i8*, ...) #2

; Function Attrs: nounwind readonly
declare dso_local i64 @strlen(i8*) #3

declare dso_local i32 @puts(i8*) #2


!llvm.module.flags = !{!0}
!llvm.ident = !{!1}

!0 = !{i32 1, !"wchar_size", i32 4}
!1 = !{!"clang version 10.0.0-4ubuntu1 "}
